; Function Attrs: mustprogress nounwind uwtable
define internal void @_ZN9grpc_core12_GLOBAL__N_19PickFirst14SubchannelList14SubchannelData15SubchannelState7WatcherD0Ev(ptr noundef nonnull align 8 dereferenceable(16) initializes((0, 8)) %0) unnamed_addr #19 align 2 personality ptr @__gxx_personality_v0 {
  store ptr getelementptr inbounds nuw inrange(-16, 32) (i8, ptr @_ZTVN9grpc_core12_GLOBAL__N_19PickFirst14SubchannelList14SubchannelData15SubchannelState7WatcherE, i64 16), ptr %0, align 8, !tbaa !6
  %2 = getelementptr inbounds nuw i8, ptr %0, i64 8
  %3 = load ptr, ptr %2, align 8, !tbaa !496
  store ptr null, ptr %2, align 8, !tbaa !496
  %.not.i.i = icmp eq ptr %3, null
  br i1 %.not.i.i, label %_ZN9grpc_core12_GLOBAL__N_19PickFirst14SubchannelList14SubchannelData15SubchannelState7WatcherD2Ev.exit, label %4

4:                                                ; preds = %1
  %5 = getelementptr inbounds nuw i8, ptr %3, i64 8
  %6 = atomicrmw sub ptr %5, i64 1 acq_rel, align 8
  %7 = icmp eq i64 %6, 1
  br i1 %7, label %8, label %_ZN9grpc_core13RefCountedPtrINS_12_GLOBAL__N_19PickFirst14SubchannelList14SubchannelData15SubchannelStateEE5resetERKNS_13DebugLocationEPKcPS5_.exit.i, !prof !35

8:                                                ; preds = %4
  tail call fastcc void @_ZNK9grpc_core11UnrefDeleteclINS_12_GLOBAL__N_19PickFirst14SubchannelList14SubchannelData15SubchannelStateEEEvPT_(ptr noundef nonnull align 8 dereferenceable(16) %3)
  br label %_ZN9grpc_core13RefCountedPtrINS_12_GLOBAL__N_19PickFirst14SubchannelList14SubchannelData15SubchannelStateEE5resetERKNS_13DebugLocationEPKcPS5_.exit.i

_ZN9grpc_core13RefCountedPtrINS_12_GLOBAL__N_19PickFirst14SubchannelList14SubchannelData15SubchannelStateEE5resetERKNS_13DebugLocationEPKcPS5_.exit.i: ; preds = %8, %4
  %.val.pr.i = load ptr, ptr %2, align 8, !tbaa !562
  %.not.i1.i = icmp eq ptr %.val.pr.i, null
  br i1 %.not.i1.i, label %_ZN9grpc_core12_GLOBAL__N_19PickFirst14SubchannelList14SubchannelData15SubchannelState7WatcherD2Ev.exit, label %9

9:                                                ; preds = %_ZN9grpc_core13RefCountedPtrINS_12_GLOBAL__N_19PickFirst14SubchannelList14SubchannelData15SubchannelStateEE5resetERKNS_13DebugLocationEPKcPS5_.exit.i
  %10 = getelementptr inbounds nuw i8, ptr %.val.pr.i, i64 8
  %11 = atomicrmw sub ptr %10, i64 1 acq_rel, align 8
  %12 = icmp eq i64 %11, 1
  br i1 %12, label %13, label %_ZN9grpc_core12_GLOBAL__N_19PickFirst14SubchannelList14SubchannelData15SubchannelState7WatcherD2Ev.exit, !prof !35

13:                                               ; preds = %9
  tail call fastcc void @_ZNK9grpc_core11UnrefDeleteclINS_12_GLOBAL__N_19PickFirst14SubchannelList14SubchannelData15SubchannelStateEEEvPT_(ptr noundef nonnull align 8 dereferenceable(16) %.val.pr.i)
  br label %_ZN9grpc_core12_GLOBAL__N_19PickFirst14SubchannelList14SubchannelData15SubchannelState7WatcherD2Ev.exit

_ZN9grpc_core12_GLOBAL__N_19PickFirst14SubchannelList14SubchannelData15SubchannelState7WatcherD2Ev.exit: ; preds = %1, %_ZN9grpc_core13RefCountedPtrINS_12_GLOBAL__N_19PickFirst14SubchannelList14SubchannelData15SubchannelStateEE5resetERKNS_13DebugLocationEPKcPS5_.exit.i, %9, %13
  tail call void @_ZdlPvm(ptr noundef nonnull %0, i64 noundef 16) #39
  ret void
}